; ModuleID = '29/92.c'
source_filename = "29/92.c"
target datalayout = "e-m:e-p270:32:32-p271:32:32-p272:64:64-i64:64-f80:128-n8:16:32:64-S128"
target triple = "x86_64-pc-linux-gnu"

@.str = private unnamed_addr constant [3 x i8] c"%d\00", align 1
@.str.1 = private unnamed_addr constant [7 x i8] c"%.3lf\0A\00", align 1

; Function Attrs: noinline nounwind uwtable
define dso_local i32 @main() #0 {
  %1 = alloca i32, align 4
  %2 = alloca i32, align 4
  %3 = alloca i32, align 4
  %4 = alloca [500 x i32], align 16
  %5 = alloca [100 x i32], align 16
  %6 = alloca i32, align 4
  %7 = alloca [499 x double], align 16
  %8 = alloca double, align 8
  store i32 0, i32* %1, align 4
  store i32 0, i32* %2, align 4
  store i32 0, i32* %6, align 4
  %9 = call i32 (i8*, ...) @__isoc99_scanf(i8* getelementptr inbounds ([3 x i8], [3 x i8]* @.str, i64 0, i64 0), i32* %3)
  %10 = getelementptr inbounds [500 x i32], [500 x i32]* %4, i64 0, i64 0
  store i32 1, i32* %10, align 16
  %11 = getelementptr inbounds [500 x i32], [500 x i32]* %4, i64 0, i64 1
  store i32 2, i32* %11, align 4
  store i32 2, i32* %2, align 4
  br label %12

12:                                               ; preds = %30, %0
  %13 = load i32, i32* %2, align 4
  %14 = icmp slt i32 %13, 500
  br i1 %14, label %15, label %33

15:                                               ; preds = %12
  %16 = load i32, i32* %2, align 4
  %17 = sub nsw i32 %16, 1
  %18 = sext i32 %17 to i64
  %19 = getelementptr inbounds [500 x i32], [500 x i32]* %4, i64 0, i64 %18
  %20 = load i32, i32* %19, align 4
  %21 = load i32, i32* %2, align 4
  %22 = sub nsw i32 %21, 2
  %23 = sext i32 %22 to i64
  %24 = getelementptr inbounds [500 x i32], [500 x i32]* %4, i64 0, i64 %23
  %25 = load i32, i32* %24, align 4
  %26 = add nsw i32 %20, %25
  %27 = load i32, i32* %2, align 4
  %28 = sext i32 %27 to i64
  %29 = getelementptr inbounds [500 x i32], [500 x i32]* %4, i64 0, i64 %28
  store i32 %26, i32* %29, align 4
  br label %30

30:                                               ; preds = %15
  %31 = load i32, i32* %2, align 4
  %32 = add nsw i32 %31, 1
  store i32 %32, i32* %2, align 4
  br label %12

33:                                               ; preds = %12
  store i32 0, i32* %2, align 4
  br label %34

34:                                               ; preds = %43, %33
  %35 = load i32, i32* %2, align 4
  %36 = load i32, i32* %3, align 4
  %37 = icmp slt i32 %35, %36
  br i1 %37, label %38, label %46

38:                                               ; preds = %34
  %39 = load i32, i32* %2, align 4
  %40 = sext i32 %39 to i64
  %41 = getelementptr inbounds [100 x i32], [100 x i32]* %5, i64 0, i64 %40
  %42 = call i32 (i8*, ...) @__isoc99_scanf(i8* getelementptr inbounds ([3 x i8], [3 x i8]* @.str, i64 0, i64 0), i32* %41)
  br label %43

43:                                               ; preds = %38
  %44 = load i32, i32* %2, align 4
  %45 = add nsw i32 %44, 1
  store i32 %45, i32* %2, align 4
  br label %34

46:                                               ; preds = %34
  store double 0.000000e+00, double* %8, align 8
  store i32 0, i32* %2, align 4
  br label %47

47:                                               ; preds = %67, %46
  %48 = load i32, i32* %2, align 4
  %49 = icmp slt i32 %48, 499
  br i1 %49, label %50, label %70

50:                                               ; preds = %47
  %51 = load i32, i32* %2, align 4
  %52 = add nsw i32 %51, 1
  %53 = sext i32 %52 to i64
  %54 = getelementptr inbounds [500 x i32], [500 x i32]* %4, i64 0, i64 %53
  %55 = load i32, i32* %54, align 4
  %56 = sitofp i32 %55 to double
  %57 = fmul double 1.000000e+00, %56
  %58 = load i32, i32* %2, align 4
  %59 = sext i32 %58 to i64
  %60 = getelementptr inbounds [500 x i32], [500 x i32]* %4, i64 0, i64 %59
  %61 = load i32, i32* %60, align 4
  %62 = sitofp i32 %61 to double
  %63 = fdiv double %57, %62
  %64 = load i32, i32* %2, align 4
  %65 = sext i32 %64 to i64
  %66 = getelementptr inbounds [499 x double], [499 x double]* %7, i64 0, i64 %65
  store double %63, double* %66, align 8
  br label %67

67:                                               ; preds = %50
  %68 = load i32, i32* %2, align 4
  %69 = add nsw i32 %68, 1
  store i32 %69, i32* %2, align 4
  br label %47

70:                                               ; preds = %47
  store i32 0, i32* %2, align 4
  br label %71

71:                                               ; preds = %96, %70
  %72 = load i32, i32* %2, align 4
  %73 = load i32, i32* %3, align 4
  %74 = icmp slt i32 %72, %73
  br i1 %74, label %75, label %99

75:                                               ; preds = %71
  store double 0.000000e+00, double* %8, align 8
  store i32 0, i32* %6, align 4
  br label %76

76:                                               ; preds = %90, %75
  %77 = load i32, i32* %6, align 4
  %78 = load i32, i32* %2, align 4
  %79 = sext i32 %78 to i64
  %80 = getelementptr inbounds [100 x i32], [100 x i32]* %5, i64 0, i64 %79
  %81 = load i32, i32* %80, align 4
  %82 = icmp slt i32 %77, %81
  br i1 %82, label %83, label %93

83:                                               ; preds = %76
  %84 = load i32, i32* %6, align 4
  %85 = sext i32 %84 to i64
  %86 = getelementptr inbounds [499 x double], [499 x double]* %7, i64 0, i64 %85
  %87 = load double, double* %86, align 8
  %88 = load double, double* %8, align 8
  %89 = fadd double %88, %87
  store double %89, double* %8, align 8
  br label %90

90:                                               ; preds = %83
  %91 = load i32, i32* %6, align 4
  %92 = add nsw i32 %91, 1
  store i32 %92, i32* %6, align 4
  br label %76

93:                                               ; preds = %76
  %94 = load double, double* %8, align 8
  %95 = call i32 (i8*, ...) @printf(i8* getelementptr inbounds ([7 x i8], [7 x i8]* @.str.1, i64 0, i64 0), double %94)
  br label %96

96:                                               ; preds = %93
  %97 = load i32, i32* %2, align 4
  %98 = add nsw i32 %97, 1
  store i32 %98, i32* %2, align 4
  br label %71

99:                                               ; preds = %71
  ret i32 0
}

declare dso_local i32 @__isoc99_scanf(i8*, ...) #1

declare dso_local i32 @printf(i8*, ...) #1


!llvm.module.flags = !{!0}
!llvm.ident = !{!1}

!0 = !{i32 1, !"wchar_size", i32 4}
!1 = !{!"clang version 10.0.0-4ubuntu1 "}
